; ModuleID = 'branch_weights.7rcbfp3g-cgu.0'
source_filename = "branch_weights.7rcbfp3g-cgu.0"
target datalayout = "e-m:e-i64:64-f80:128-n8:16:32:64-S128"
target triple = "x86_64-unknown-linux-gnu"

%"unwind::libunwind::_Unwind_Exception" = type { [0 x i64], i64, [0 x i64], void (i32, %"unwind::libunwind::_Unwind_Exception"*)*, [0 x i64], [6 x i64], [0 x i64] }
%"unwind::libunwind::_Unwind_Context" = type { [0 x i8] }

$__llvm_profile_raw_version = comdat any

$__llvm_profile_filename = comdat any

@vtable.0 = private unnamed_addr constant { void (i8**)*, i64, i64, i32 (i8**)*, i32 (i8**)*, i32 (i8**)* } { void (i8**)* @_ZN4core3ptr18real_drop_in_place17hb4ac17a9c8ec435bE, i64 8, i64 8, i32 (i8**)* @"_ZN3std2rt10lang_start28_$u7b$$u7b$closure$u7d$$u7d$17he98b394592adf299E", i32 (i8**)* @"_ZN3std2rt10lang_start28_$u7b$$u7b$closure$u7d$$u7d$17he98b394592adf299E", i32 (i8**)* @"_ZN4core3ops8function6FnOnce40call_once$u7b$$u7b$vtable.shim$u7d$$u7d$17h0b1949f3508b6cbeE" }, align 8
@0 = private unnamed_addr constant <{ [1000 x i8] }> <{ [1000 x i8] c"\1C\12C9\17\0C-)\08^[.3\22<Ba\10::,A`4^\0BJ]c?JK*%/\0D4ET\00AV7\05\19M>I[!#2@\12%\1D2SV :R`R\1F$._D\12*\1F\11(8P<cM\08d\16\0CH7/Yc4\1D`\1CL5\1D2^\0A=\07\070#\5C05]'\15<\0A1b\1AO\0FV\17+'Y \0E!F\19\1E\5C_\0FR)Y\1BQ2W\04J_!\15a94:\137\16$\22\05\01\03\08D\1A'FRN\05?\14\03(c9\0A\0A\08#\06\18GY\020\112\0Fd%&JJ\00&\5C3%M\5CHZXTRA\06VX'\08,\11&\18\08^<\0A#C,\1F\06_\01J\15.WK\03S\0B1 2$I5\1F!C\1A$X]K^\10\0Dd11\22\1DV\0Ad\159^EK `3/\09S8$\1EEH\16P\5CaL2\1D)\1C55\12HFYQ8X\11b\03\14\138:@54c\13\0F\02'SN\145\1A-CR6\07\10JT\0A-\132O\10&)Db`*\11OSNW\13*A\14]\1FY\13\10\04\0B1E2 2O#\11\07S\5C\1E>\04a\1F1V5JO\14C\12?.(^\19a-\14\17R\08IcS/!VSX\1EKSd9\5CR\03.\06W[]dS8H\18\0DG\0D\1F\14c[\0F\11;G?\1F\0FY\08\06\0D\09*6#H!&\01<&P8@:IW\22\03]&2>B\1F.,J VM'\14@9\19TCM\09c%(\17\1C(+5a\18/Q-_\0F#_F\22Z\19**34^BSGFa]\0Ecdd\15?#\0F ,:V/\17WMY\09\11#\00\08PY0\11\11B6LA\06-#RU[WV\12;\13\12\10\16W\19J&C\01\07-\00\1D\12\1E\22)94,DW]\1Ed\15K8b2\0FB\05#\0D\1EUaR3\05O\02`\17%\05\1D`\10\19\04P@\16X\0B@\1B\00-\15\03Q\016F\1E\10O\09^\0EQ2&4\0D,]\10.\10\04SSX8T\222\5C\1AV6I\1F\10LBW\16\1F`.\13\22>1\14:+\184F1\1E+\0BP1-\0CD \12FOZ\1A\1C\1E;\180\0A4\10?JVcB\1D1?4]A\0F_=% 4-\13I\15N+G[S5\14=@] !Q$G\17I\03a\06\08\01\01?\1D\0AS)\0AY\10\16`1\1A\19N_X\1D/^(bU\0A\19c;\1A:\11\09R\177A\0B\10-&d\181`[\19\0E\1B?\0D?\15K\19_H\05I5EF\17\10A&2\054T>\02J^U=8\00OX2\0D\06$ \06F$@B\01#L\01\05\00N\0C/:RD\0BVK.\0DA69 \147\00>^:[D\0A\10\12G\09<\1DR5U-\08J\10M \1EV7\03;21%P\0DPG\14>2U7]\19\1BP'\1A\15\06[\0EJ$]ETZL\0A\0AWN\18L\5C;@M@TX\141>\02\19\14\22\0FaHT9];\15\22+\09[+.\227\1B8T\19R\05\0F[O\01^'\0FD<\08.*\10JO\09'\22MA\1FT\01\06b\1A,\11.>b\22\1CX\07\0EF=\04-\0CF\13BP\0E\02\11E\11\11\05\09\1D.\0F\018O<`\01\062\0D\16\00_\01\14dI0_YN" }>, align 1
@__llvm_profile_raw_version = local_unnamed_addr constant i64 72057594037927940, comdat
@__profc__ZN3std2rt10lang_start17hd1c20e3ad823dc43E = private global [1 x i64] zeroinitializer, section "__llvm_prf_cnts", align 8
@__profd__ZN3std2rt10lang_start17hd1c20e3ad823dc43E = private global { i64, i64, i64*, i8*, i8*, i32, [2 x i16] } { i64 -3819313969875614979, i64 12884901887, i64* getelementptr inbounds ([1 x i64], [1 x i64]* @__profc__ZN3std2rt10lang_start17hd1c20e3ad823dc43E, i32 0, i32 0), i8* bitcast (i64 (void ()*, i64, i8**)* @_ZN3std2rt10lang_start17hd1c20e3ad823dc43E to i8*), i8* null, i32 1, [2 x i16] zeroinitializer }, section "__llvm_prf_data", align 8
@"__profc_branch_weights.7rcbfp3g_cgu.0__ZN3std2rt10lang_start28_$u7b$$u7b$closure$u7d$$u7d$17he98b394592adf299E" = private global [1 x i64] zeroinitializer, section "__llvm_prf_cnts", align 8
@"__profvp_branch_weights.7rcbfp3g_cgu.0__ZN3std2rt10lang_start28_$u7b$$u7b$closure$u7d$$u7d$17he98b394592adf299E" = private global [1 x i64] zeroinitializer, section "__llvm_prf_vals", align 8
@"__profd_branch_weights.7rcbfp3g_cgu.0__ZN3std2rt10lang_start28_$u7b$$u7b$closure$u7d$$u7d$17he98b394592adf299E" = private global { i64, i64, i64*, i8*, i8*, i32, [2 x i16] } { i64 6711087905525760603, i64 281487861612543, i64* getelementptr inbounds ([1 x i64], [1 x i64]* @"__profc_branch_weights.7rcbfp3g_cgu.0__ZN3std2rt10lang_start28_$u7b$$u7b$closure$u7d$$u7d$17he98b394592adf299E", i32 0, i32 0), i8* bitcast (i32 (i8**)* @"_ZN3std2rt10lang_start28_$u7b$$u7b$closure$u7d$$u7d$17he98b394592adf299E" to i8*), i8* bitcast ([1 x i64]* @"__profvp_branch_weights.7rcbfp3g_cgu.0__ZN3std2rt10lang_start28_$u7b$$u7b$closure$u7d$$u7d$17he98b394592adf299E" to i8*), i32 1, [2 x i16] [i16 1, i16 0] }, section "__llvm_prf_data", align 8
@"__profc_branch_weights.7rcbfp3g_cgu.0__ZN4core3ops8function6FnOnce40call_once$u7b$$u7b$vtable.shim$u7d$$u7d$17h0b1949f3508b6cbeE" = private global [1 x i64] zeroinitializer, section "__llvm_prf_cnts", align 8
@"__profvp_branch_weights.7rcbfp3g_cgu.0__ZN4core3ops8function6FnOnce40call_once$u7b$$u7b$vtable.shim$u7d$$u7d$17h0b1949f3508b6cbeE" = private global [1 x i64] zeroinitializer, section "__llvm_prf_vals", align 8
@"__profd_branch_weights.7rcbfp3g_cgu.0__ZN4core3ops8function6FnOnce40call_once$u7b$$u7b$vtable.shim$u7d$$u7d$17h0b1949f3508b6cbeE" = private global { i64, i64, i64*, i8*, i8*, i32, [2 x i16] } { i64 5658111964510924009, i64 281487861612543, i64* getelementptr inbounds ([1 x i64], [1 x i64]* @"__profc_branch_weights.7rcbfp3g_cgu.0__ZN4core3ops8function6FnOnce40call_once$u7b$$u7b$vtable.shim$u7d$$u7d$17h0b1949f3508b6cbeE", i32 0, i32 0), i8* bitcast (i32 (i8**)* @"_ZN4core3ops8function6FnOnce40call_once$u7b$$u7b$vtable.shim$u7d$$u7d$17h0b1949f3508b6cbeE" to i8*), i8* bitcast ([1 x i64]* @"__profvp_branch_weights.7rcbfp3g_cgu.0__ZN4core3ops8function6FnOnce40call_once$u7b$$u7b$vtable.shim$u7d$$u7d$17h0b1949f3508b6cbeE" to i8*), i32 1, [2 x i16] [i16 1, i16 0] }, section "__llvm_prf_data", align 8
@__profc_branch_weights.7rcbfp3g_cgu.0__ZN4core3ptr18real_drop_in_place17hb4ac17a9c8ec435bE = private global [1 x i64] zeroinitializer, section "__llvm_prf_cnts", align 8
@__profd_branch_weights.7rcbfp3g_cgu.0__ZN4core3ptr18real_drop_in_place17hb4ac17a9c8ec435bE = private global { i64, i64, i64*, i8*, i8*, i32, [2 x i16] } { i64 -221036016410844240, i64 12884901887, i64* getelementptr inbounds ([1 x i64], [1 x i64]* @__profc_branch_weights.7rcbfp3g_cgu.0__ZN4core3ptr18real_drop_in_place17hb4ac17a9c8ec435bE, i32 0, i32 0), i8* bitcast (void (i8**)* @_ZN4core3ptr18real_drop_in_place17hb4ac17a9c8ec435bE to i8*), i8* null, i32 1, [2 x i16] zeroinitializer }, section "__llvm_prf_data", align 8
@__profc_branch_weights.7rcbfp3g_cgu.0__ZN14branch_weights4main17h07d5948c005dd499E = private global [2 x i64] zeroinitializer, section "__llvm_prf_cnts", align 8
@__profd_branch_weights.7rcbfp3g_cgu.0__ZN14branch_weights4main17h07d5948c005dd499E = private global { i64, i64, i64*, i8*, i8*, i32, [2 x i16] } { i64 -3540770189133163840, i64 29212902728, i64* getelementptr inbounds ([2 x i64], [2 x i64]* @__profc_branch_weights.7rcbfp3g_cgu.0__ZN14branch_weights4main17h07d5948c005dd499E, i32 0, i32 0), i8* bitcast (void ()* @_ZN14branch_weights4main17h07d5948c005dd499E to i8*), i8* null, i32 2, [2 x i16] zeroinitializer }, section "__llvm_prf_data", align 8
@__profc_main = private global [1 x i64] zeroinitializer, section "__llvm_prf_cnts", align 8
@__profd_main = private global { i64, i64, i64*, i8*, i8*, i32, [2 x i16] } { i64 -2624081020897602054, i64 12884901887, i64* getelementptr inbounds ([1 x i64], [1 x i64]* @__profc_main, i32 0, i32 0), i8* bitcast (i32 (i32, i8**)* @main to i8*), i8* null, i32 1, [2 x i16] zeroinitializer }, section "__llvm_prf_data", align 8
@__llvm_prf_vnodes = private global [10 x { i64, i64, i8* }] zeroinitializer, section "__llvm_prf_vnds"
@__llvm_prf_nm = private constant [432 x i8] c"\AD\03\00_ZN3std2rt10lang_start17hd1c20e3ad823dc43E\01branch_weights.7rcbfp3g-cgu.0:_ZN3std2rt10lang_start28_$u7b$$u7b$closure$u7d$$u7d$17he98b394592adf299E\01branch_weights.7rcbfp3g-cgu.0:_ZN4core3ops8function6FnOnce40call_once$u7b$$u7b$vtable.shim$u7d$$u7d$17h0b1949f3508b6cbeE\01branch_weights.7rcbfp3g-cgu.0:_ZN4core3ptr18real_drop_in_place17hb4ac17a9c8ec435bE\01branch_weights.7rcbfp3g-cgu.0:_ZN14branch_weights4main17h07d5948c005dd499E\01main", section "__llvm_prf_names"
@__llvm_profile_filename = local_unnamed_addr constant [72 x i8] c"/xoxo/rust-pgo-test-programs/branch_weights/profdata/default_%m.profraw\00", comdat
@llvm.used = appending global [8 x i8*] [i8* getelementptr inbounds ([432 x i8], [432 x i8]* @__llvm_prf_nm, i32 0, i32 0), i8* bitcast ([10 x { i64, i64, i8* }]* @__llvm_prf_vnodes to i8*), i8* bitcast ({ i64, i64, i64*, i8*, i8*, i32, [2 x i16] }* @__profd__ZN3std2rt10lang_start17hd1c20e3ad823dc43E to i8*), i8* bitcast ({ i64, i64, i64*, i8*, i8*, i32, [2 x i16] }* @__profd_branch_weights.7rcbfp3g_cgu.0__ZN14branch_weights4main17h07d5948c005dd499E to i8*), i8* bitcast ({ i64, i64, i64*, i8*, i8*, i32, [2 x i16] }* @"__profd_branch_weights.7rcbfp3g_cgu.0__ZN3std2rt10lang_start28_$u7b$$u7b$closure$u7d$$u7d$17he98b394592adf299E" to i8*), i8* bitcast ({ i64, i64, i64*, i8*, i8*, i32, [2 x i16] }* @"__profd_branch_weights.7rcbfp3g_cgu.0__ZN4core3ops8function6FnOnce40call_once$u7b$$u7b$vtable.shim$u7d$$u7d$17h0b1949f3508b6cbeE" to i8*), i8* bitcast ({ i64, i64, i64*, i8*, i8*, i32, [2 x i16] }* @__profd_branch_weights.7rcbfp3g_cgu.0__ZN4core3ptr18real_drop_in_place17hb4ac17a9c8ec435bE to i8*), i8* bitcast ({ i64, i64, i64*, i8*, i8*, i32, [2 x i16] }* @__profd_main to i8*)], section "llvm.metadata"

; std::rt::lang_start
; Function Attrs: nonlazybind uwtable
define hidden i64 @_ZN3std2rt10lang_start17hd1c20e3ad823dc43E(void ()* nonnull %main, i64 %argc, i8** %argv) unnamed_addr #0 {
start:
  %pgocount = load i64, i64* getelementptr inbounds ([1 x i64], [1 x i64]* @__profc__ZN3std2rt10lang_start17hd1c20e3ad823dc43E, i64 0, i64 0), align 8
  %0 = add i64 %pgocount, 1
  store i64 %0, i64* getelementptr inbounds ([1 x i64], [1 x i64]* @__profc__ZN3std2rt10lang_start17hd1c20e3ad823dc43E, i64 0, i64 0), align 8
  %_7 = alloca i8*, align 8
  %1 = bitcast i8** %_7 to i8*
  call void @llvm.lifetime.start.p0i8(i64 8, i8* nonnull %1)
  %2 = bitcast i8** %_7 to void ()**
  store void ()* %main, void ()** %2, align 8
  %3 = bitcast i8** %_7 to {}*
; call std::rt::lang_start_internal
  %4 = call i64 @_ZN3std2rt19lang_start_internal17h1e399ade45c9de08E({}* nonnull align 1 %3, [3 x i64]* noalias readonly align 8 dereferenceable(24) bitcast ({ void (i8**)*, i64, i64, i32 (i8**)*, i32 (i8**)*, i32 (i8**)* }* @vtable.0 to [3 x i64]*), i64 %argc, i8** %argv)
  call void @llvm.lifetime.end.p0i8(i64 8, i8* nonnull %1)
  ret i64 %4
}

; std::rt::lang_start::{{closure}}
; Function Attrs: nonlazybind uwtable
define internal i32 @"_ZN3std2rt10lang_start28_$u7b$$u7b$closure$u7d$$u7d$17he98b394592adf299E"(i8** noalias nocapture readonly align 8 dereferenceable(8) %arg0) unnamed_addr #0 {
start:
  %pgocount = load i64, i64* getelementptr inbounds ([1 x i64], [1 x i64]* @"__profc_branch_weights.7rcbfp3g_cgu.0__ZN3std2rt10lang_start28_$u7b$$u7b$closure$u7d$$u7d$17he98b394592adf299E", i64 0, i64 0), align 8
  %0 = add i64 %pgocount, 1
  store i64 %0, i64* getelementptr inbounds ([1 x i64], [1 x i64]* @"__profc_branch_weights.7rcbfp3g_cgu.0__ZN3std2rt10lang_start28_$u7b$$u7b$closure$u7d$$u7d$17he98b394592adf299E", i64 0, i64 0), align 8
  %1 = bitcast i8** %arg0 to void ()**
  %2 = load void ()*, void ()** %1, align 8, !nonnull !2
  %3 = ptrtoint void ()* %2 to i64
  tail call void @__llvm_profile_instrument_target(i64 %3, i8* bitcast ({ i64, i64, i64*, i8*, i8*, i32, [2 x i16] }* @"__profd_branch_weights.7rcbfp3g_cgu.0__ZN3std2rt10lang_start28_$u7b$$u7b$closure$u7d$$u7d$17he98b394592adf299E" to i8*), i32 0)
  tail call void %2()
  ret i32 0
}

; core::ops::function::FnOnce::call_once{{vtable.shim}}
; Function Attrs: nonlazybind uwtable
define internal i32 @"_ZN4core3ops8function6FnOnce40call_once$u7b$$u7b$vtable.shim$u7d$$u7d$17h0b1949f3508b6cbeE"(i8** nocapture readonly %arg0) unnamed_addr #0 personality i32 (i32, i32, i64, %"unwind::libunwind::_Unwind_Exception"*, %"unwind::libunwind::_Unwind_Context"*)* @rust_eh_personality {
start:
  %pgocount = load i64, i64* getelementptr inbounds ([1 x i64], [1 x i64]* @"__profc_branch_weights.7rcbfp3g_cgu.0__ZN4core3ops8function6FnOnce40call_once$u7b$$u7b$vtable.shim$u7d$$u7d$17h0b1949f3508b6cbeE", i64 0, i64 0), align 8
  %0 = add i64 %pgocount, 1
  store i64 %0, i64* getelementptr inbounds ([1 x i64], [1 x i64]* @"__profc_branch_weights.7rcbfp3g_cgu.0__ZN4core3ops8function6FnOnce40call_once$u7b$$u7b$vtable.shim$u7d$$u7d$17h0b1949f3508b6cbeE", i64 0, i64 0), align 8
  %1 = bitcast i8** %arg0 to void ()**
  %2 = load void ()*, void ()** %1, align 8, !nonnull !2
  %3 = ptrtoint void ()* %2 to i64
  tail call void @__llvm_profile_instrument_target(i64 %3, i8* bitcast ({ i64, i64, i64*, i8*, i8*, i32, [2 x i16] }* @"__profd_branch_weights.7rcbfp3g_cgu.0__ZN4core3ops8function6FnOnce40call_once$u7b$$u7b$vtable.shim$u7d$$u7d$17h0b1949f3508b6cbeE" to i8*), i32 0)
  tail call void %2(), !noalias !3
  ret i32 0
}

; core::ptr::real_drop_in_place
; Function Attrs: norecurse nounwind nonlazybind uwtable
define internal void @_ZN4core3ptr18real_drop_in_place17hb4ac17a9c8ec435bE(i8** nocapture readnone align 8 dereferenceable(8) %arg0) unnamed_addr #1 {
start:
  %pgocount = load i64, i64* getelementptr inbounds ([1 x i64], [1 x i64]* @__profc_branch_weights.7rcbfp3g_cgu.0__ZN4core3ptr18real_drop_in_place17hb4ac17a9c8ec435bE, i64 0, i64 0), align 8
  %0 = add i64 %pgocount, 1
  store i64 %0, i64* getelementptr inbounds ([1 x i64], [1 x i64]* @__profc_branch_weights.7rcbfp3g_cgu.0__ZN4core3ptr18real_drop_in_place17hb4ac17a9c8ec435bE, i64 0, i64 0), align 8
  ret void
}

; branch_weights::main
; Function Attrs: nonlazybind uwtable
define internal void @_ZN14branch_weights4main17h07d5948c005dd499E() unnamed_addr #0 personality i32 (i32, i32, i64, %"unwind::libunwind::_Unwind_Exception"*, %"unwind::libunwind::_Unwind_Context"*)* @rust_eh_personality {
start:
  %pgocount = load i64, i64* getelementptr inbounds ([2 x i64], [2 x i64]* @__profc_branch_weights.7rcbfp3g_cgu.0__ZN14branch_weights4main17h07d5948c005dd499E, i64 0, i64 1), align 8
  %0 = add i64 %pgocount, 1
  store i64 %0, i64* getelementptr inbounds ([2 x i64], [2 x i64]* @__profc_branch_weights.7rcbfp3g_cgu.0__ZN14branch_weights4main17h07d5948c005dd499E, i64 0, i64 1), align 8
  br label %bb6

bb4:                                              ; preds = %bb6
  %pgocount.promoted = load i64, i64* getelementptr inbounds ([2 x i64], [2 x i64]* @__profc_branch_weights.7rcbfp3g_cgu.0__ZN14branch_weights4main17h07d5948c005dd499E, i64 0, i64 0), align 8
  %1 = add i64 %pgocount.promoted, 100000
  store i64 %1, i64* getelementptr inbounds ([2 x i64], [2 x i64]* @__profc_branch_weights.7rcbfp3g_cgu.0__ZN14branch_weights4main17h07d5948c005dd499E, i64 0, i64 0), align 8
  ret void

bb6:                                              ; preds = %bb6, %start
  %iter.sroa.0.09 = phi i32 [ 0, %start ], [ %iter.sroa.0.1, %bb6 ]
  %iter.sroa.0.1 = add nuw nsw i32 %iter.sroa.0.09, 1
; call opt_lib::do_the_loop
  tail call void @_ZN7opt_lib11do_the_loop17hc0c46794e6198059E([0 x i8]* noalias nonnull readonly align 1 bitcast (<{ [1000 x i8] }>* @0 to [0 x i8]*), i64 1000, i64 1000)
  %exitcond = icmp eq i32 %iter.sroa.0.1, 100000
  br i1 %exitcond, label %bb4, label %bb6
}

; std::rt::lang_start_internal
; Function Attrs: nonlazybind uwtable
declare i64 @_ZN3std2rt19lang_start_internal17h1e399ade45c9de08E({}* nonnull align 1, [3 x i64]* noalias readonly align 8 dereferenceable(24), i64, i8**) unnamed_addr #0

; Function Attrs: nounwind nonlazybind uwtable
declare i32 @rust_eh_personality(i32, i32, i64, %"unwind::libunwind::_Unwind_Exception"*, %"unwind::libunwind::_Unwind_Context"*) unnamed_addr #2

; opt_lib::do_the_loop
; Function Attrs: nonlazybind uwtable
declare void @_ZN7opt_lib11do_the_loop17hc0c46794e6198059E([0 x i8]* noalias nonnull readonly align 1, i64, i64) unnamed_addr #0

; Function Attrs: nonlazybind
define i32 @main(i32, i8**) unnamed_addr #3 {
top:
  %pgocount = load i64, i64* getelementptr inbounds ([1 x i64], [1 x i64]* @__profc_main, i64 0, i64 0), align 8
  %2 = add i64 %pgocount, 1
  store i64 %2, i64* getelementptr inbounds ([1 x i64], [1 x i64]* @__profc_main, i64 0, i64 0), align 8
  %_7.i = alloca i8*, align 8
  %3 = sext i32 %0 to i64
  %4 = bitcast i8** %_7.i to i8*
  call void @llvm.lifetime.start.p0i8(i64 8, i8* nonnull %4)
  %5 = bitcast i8** %_7.i to void ()**
  store void ()* @_ZN14branch_weights4main17h07d5948c005dd499E, void ()** %5, align 8
  %6 = bitcast i8** %_7.i to {}*
; call std::rt::lang_start_internal
  %7 = call i64 @_ZN3std2rt19lang_start_internal17h1e399ade45c9de08E({}* nonnull align 1 %6, [3 x i64]* noalias readonly align 8 dereferenceable(24) bitcast ({ void (i8**)*, i64, i64, i32 (i8**)*, i32 (i8**)*, i32 (i8**)* }* @vtable.0 to [3 x i64]*), i64 %3, i8** %1)
  call void @llvm.lifetime.end.p0i8(i64 8, i8* nonnull %4)
  %8 = trunc i64 %7 to i32
  ret i32 %8
}

; Function Attrs: argmemonly nounwind
declare void @llvm.lifetime.start.p0i8(i64, i8* nocapture) #4

; Function Attrs: argmemonly nounwind
declare void @llvm.lifetime.end.p0i8(i64, i8* nocapture) #4

declare void @__llvm_profile_instrument_target(i64, i8*, i32) local_unnamed_addr

attributes #0 = { nonlazybind uwtable "target-cpu"="x86-64" }
attributes #1 = { norecurse nounwind nonlazybind uwtable "target-cpu"="x86-64" }
attributes #2 = { nounwind nonlazybind uwtable "target-cpu"="x86-64" }
attributes #3 = { nonlazybind "target-cpu"="x86-64" }
attributes #4 = { argmemonly nounwind }

!llvm.module.flags = !{!0, !1}

!0 = !{i32 7, !"PIE Level", i32 2}
!1 = !{i32 2, !"RtLibUseGOT", i32 1}
!2 = !{}
!3 = !{!4}
!4 = distinct !{!4, !5, !"_ZN3std2rt10lang_start28_$u7b$$u7b$closure$u7d$$u7d$17he98b394592adf299E: %arg0"}
!5 = distinct !{!5, !"_ZN3std2rt10lang_start28_$u7b$$u7b$closure$u7d$$u7d$17he98b394592adf299E"}
